target datalayout = "e-m:e-p270:32:32-p271:32:32-p272:64:64-i64:64-i128:128-f80:128-n8:16:32:64-S128"
target triple = "x86_64-pc-linux-gnu"

%"struct.gmx::EnumerationArray.0" = type { [6 x float] }
%struct.gmx_output_env_t = type <{ ptr, i32, i8, [3 x i8], i32, i32, i32, [4 x i8] }>

@_ZL23c_picosecondsInTimeUnit = internal constant %"struct.gmx::EnumerationArray.0" { [6 x float] [float 1.000000e+03, float 1.000000e+00, float 0x3F50624DE0000000, float 0x3EB0C6F7A0000000, float 0x3E112E0BE0000000, float 0x3D71979980000000] }, align 4

; Function Attrs: mustprogress nounwind uwtable
define linkonce_odr noundef nonnull align 4 dereferenceable(4) ptr @_ZNK3gmx16EnumerationArrayINS_8TimeUnitEfLS1_6EEixES1_(ptr noundef nonnull align 4 dereferenceable(24) %0, i32 noundef %1) #3 comdat align 2 {
  %3 = alloca ptr, align 8
  %4 = alloca i32, align 4
  store ptr %0, ptr %3, align 8, !tbaa !60
  store i32 %1, ptr %4, align 4, !tbaa !12
  %5 = load ptr, ptr %3, align 8
  %6 = getelementptr inbounds nuw %"struct.gmx::EnumerationArray.0", ptr %5, i32 0, i32 0
  %7 = load i32, ptr %4, align 4, !tbaa !12
  %8 = sext i32 %7 to i64
  %9 = getelementptr inbounds nuw [6 x float], ptr %6, i64 0, i64 %8
  ret ptr %9
}

; Function Attrs: mustprogress nounwind uwtable
define void @_Z21output_env_conv_timesPK16gmx_output_env_tiPf(ptr noundef %0, i32 noundef %1, ptr noundef %2) #3 {
  %4 = alloca ptr, align 8
  %5 = alloca i32, align 4
  %6 = alloca ptr, align 8
  %7 = alloca i32, align 4
  %8 = alloca double, align 8
  store ptr %0, ptr %4, align 8, !tbaa !20
  store i32 %1, ptr %5, align 4, !tbaa !18
  store ptr %2, ptr %6, align 8, !tbaa !62
  call void @llvm.lifetime.start.p0(i64 4, ptr %7) #14
  call void @llvm.lifetime.start.p0(i64 8, ptr %8) #14
  %9 = load ptr, ptr %4, align 8, !tbaa !20
  %10 = getelementptr inbounds nuw %struct.gmx_output_env_t, ptr %9, i32 0, i32 1
  %11 = load i32, ptr %10, align 8, !tbaa !22
  %12 = call noundef nonnull align 4 dereferenceable(4) ptr @_ZNK3gmx16EnumerationArrayINS_8TimeUnitEfLS1_6EEixES1_(ptr noundef nonnull align 4 dereferenceable(24) @_ZL23c_picosecondsInTimeUnit, i32 noundef %11)
  %13 = load float, ptr %12, align 4, !tbaa !58
  %14 = fpext float %13 to double
  store double %14, ptr %8, align 8, !tbaa !64
  %15 = load double, ptr %8, align 8, !tbaa !64
  %16 = fcmp une double %15, 1.000000e+00
  br i1 %16, label %17, label %36

17:                                               ; preds = %3
  store i32 0, ptr %7, align 4, !tbaa !18
  br label %18

18:                                               ; preds = %32, %17
  %19 = load i32, ptr %7, align 4, !tbaa !18
  %20 = load i32, ptr %5, align 4, !tbaa !18
  %21 = icmp slt i32 %19, %20
  br i1 %21, label %22, label %35

22:                                               ; preds = %18
  %23 = load double, ptr %8, align 8, !tbaa !64
  %24 = load ptr, ptr %6, align 8, !tbaa !62
  %25 = load i32, ptr %7, align 4, !tbaa !18
  %26 = sext i32 %25 to i64
  %27 = getelementptr inbounds float, ptr %24, i64 %26
  %28 = load float, ptr %27, align 4, !tbaa !58
  %29 = fpext float %28 to double
  %30 = fmul double %29, %23
  %31 = fptrunc double %30 to float
  store float %31, ptr %27, align 4, !tbaa !58
  br label %32

32:                                               ; preds = %22
  %33 = load i32, ptr %7, align 4, !tbaa !18
  %34 = add nsw i32 %33, 1
  store i32 %34, ptr %7, align 4, !tbaa !18
  br label %18, !llvm.loop !66

35:                                               ; preds = %18
  br label %36

36:                                               ; preds = %35, %3
  call void @llvm.lifetime.end.p0(i64 8, ptr %8) #14
  call void @llvm.lifetime.end.p0(i64 4, ptr %7) #14
  ret void
}