; Function Attrs: mustprogress nofree norecurse nosync nounwind memory(argmem: readwrite) uwtable
define void @_Z21output_env_conv_timesPK16gmx_output_env_tiPf(ptr noundef readonly captures(none) %0, i32 noundef %1, ptr noundef captures(none) %2) local_unnamed_addr #15 {
  %4 = getelementptr inbounds nuw i8, ptr %0, i64 8
  %5 = load i32, ptr %4, align 8, !tbaa !17
  %6 = sext i32 %5 to i64
  %7 = getelementptr inbounds nuw [6 x float], ptr @_ZL23c_picosecondsInTimeUnit, i64 0, i64 %6
  %8 = load float, ptr %7, align 4, !tbaa !31
  %9 = fcmp une float %8, 1.000000e+00
  %10 = icmp sgt i32 %1, 0
  %or.cond = and i1 %9, %10
  br i1 %or.cond, label %.lr.ph.preheader, label %.loopexit

.lr.ph.preheader:                                 ; preds = %3
  %wide.trip.count = zext nneg i32 %1 to i64
  br label %.lr.ph

.lr.ph:                                           ; preds = %.lr.ph.preheader, %.lr.ph
  %indvars.iv = phi i64 [ 0, %.lr.ph.preheader ], [ %indvars.iv.next, %.lr.ph ]
  %11 = getelementptr inbounds nuw float, ptr %2, i64 %indvars.iv
  %12 = load float, ptr %11, align 4, !tbaa !31
  %13 = fmul float %8, %12
  store float %13, ptr %11, align 4, !tbaa !31
  %indvars.iv.next = add nuw nsw i64 %indvars.iv, 1
  %exitcond.not = icmp eq i64 %indvars.iv.next, %wide.trip.count
  br i1 %exitcond.not, label %.loopexit, label %.lr.ph, !llvm.loop !33

.loopexit:                                        ; preds = %.lr.ph, %3
  ret void
}